; Function Attrs: mustprogress nounwind uwtable
define hidden void @_ZNK18TailCalljmpIndNode4emitEP17C2_MacroAssemblerP13PhaseRegAlloc(ptr noundef nonnull align 8 dereferenceable(112) %0, ptr noundef %1, ptr noundef %2) unnamed_addr #3 align 2 {
  %4 = getelementptr inbounds i8, ptr %0, i64 96
  %5 = load ptr, ptr %4, align 8
  %6 = load ptr, ptr %5, align 8
  %7 = getelementptr inbounds i8, ptr %6, i64 8
  %8 = load ptr, ptr %7, align 8
  %9 = tail call noundef i32 %8(ptr noundef nonnull align 8 dereferenceable(8) %5) #23
  %10 = load ptr, ptr %4, align 8
  %11 = load ptr, ptr %10, align 8
  %12 = getelementptr inbounds i8, ptr %11, i64 40
  %13 = load ptr, ptr %12, align 8
  %14 = tail call noundef i32 %13(ptr noundef nonnull align 8 dereferenceable(8) %10, ptr noundef %2, ptr noundef nonnull %0, i32 noundef 5) #23
  %or.cond.i.i = icmp ult i32 %14, 32
  %spec.select.i.i = select i1 %or.cond.i.i, i32 %14, i32 -1
  tail call void @_ZN9Assembler3jmpE8Register(ptr noundef nonnull align 8 dereferenceable(40) %1, i32 %spec.select.i.i) #23
  ret void
}